; Function Attrs: mustprogress uwtable
define void @_ZN8facebook5velox4exec12sanitizeNameERKNSt7__cxx1112basic_stringIcSt11char_traitsIcESaIcEEE(ptr noalias nonnull sret(%"class.std::__cxx11::basic_string") align 8 %agg.result, ptr noundef nonnull align 8 dereferenceable(32) %name) local_unnamed_addr #0 personality ptr @__gxx_personality_v0 {
entry:
  tail call void @_ZNSt7__cxx1112basic_stringIcSt11char_traitsIcESaIcEEC1Ev(ptr noundef nonnull align 8 dereferenceable(32) %agg.result) #20
  %call = tail call noundef i64 @_ZNKSt7__cxx1112basic_stringIcSt11char_traitsIcESaIcEE4sizeEv(ptr noundef nonnull align 8 dereferenceable(32) %name) #20
  invoke void @_ZNSt7__cxx1112basic_stringIcSt11char_traitsIcESaIcEE6resizeEm(ptr noundef nonnull align 8 dereferenceable(32) %agg.result, i64 noundef %call)
          to label %invoke.cont unwind label %lpad

invoke.cont:                                      ; preds = %entry
  %call1 = tail call ptr @_ZNKSt7__cxx1112basic_stringIcSt11char_traitsIcESaIcEE5beginEv(ptr noundef nonnull align 8 dereferenceable(32) %name) #20
  %call3 = tail call ptr @_ZNKSt7__cxx1112basic_stringIcSt11char_traitsIcESaIcEE3endEv(ptr noundef nonnull align 8 dereferenceable(32) %name) #20
  %call6 = tail call ptr @_ZNSt7__cxx1112basic_stringIcSt11char_traitsIcESaIcEE5beginEv(ptr noundef nonnull align 8 dereferenceable(32) %agg.result) #20
  %cmp.i.not5.i = icmp eq ptr %call1, %call3
  br i1 %cmp.i.not5.i, label %nrvo.skipdtor, label %for.body.i

for.body.i:                                       ; preds = %invoke.cont, %for.body.i
  %__result.sroa.0.07.i = phi ptr [ %incdec.ptr.i1.i, %for.body.i ], [ %call6, %invoke.cont ]
  %__first.sroa.0.06.i = phi ptr [ %incdec.ptr.i.i, %for.body.i ], [ %call1, %invoke.cont ]
  %0 = load i8, ptr %__first.sroa.0.06.i, align 1
  %conv.i.i = zext i8 %0 to i32
  %call.i.i = tail call noundef i32 @tolower(i32 noundef %conv.i.i) #21
  %conv.i = trunc i32 %call.i.i to i8
  store i8 %conv.i, ptr %__result.sroa.0.07.i, align 1
  %incdec.ptr.i.i = getelementptr inbounds i8, ptr %__first.sroa.0.06.i, i64 1
  %incdec.ptr.i1.i = getelementptr inbounds i8, ptr %__result.sroa.0.07.i, i64 1
  %cmp.i.not.i = icmp eq ptr %incdec.ptr.i.i, %call3
  br i1 %cmp.i.not.i, label %nrvo.skipdtor, label %for.body.i, !llvm.loop !4

lpad:                                             ; preds = %entry
  %1 = landingpad { ptr, i32 }
          cleanup
  tail call void @_ZNSt7__cxx1112basic_stringIcSt11char_traitsIcESaIcEED1Ev(ptr noundef nonnull align 8 dereferenceable(32) %agg.result) #20
  resume { ptr, i32 } %1

nrvo.skipdtor:                                    ; preds = %for.body.i, %invoke.cont
  ret void
}